target datalayout = "e-m:e-p270:32:32-p271:32:32-p272:64:64-i64:64-i128:128-f80:128-n8:16:32:64-S128"
target triple = "x86_64-pc-linux-gnu"

%"struct.datalog::costs" = type { i32, i32 }

@.str.17 = private unnamed_addr constant [12 x i8] c"instruction\00", align 1
@.str.18 = private unnamed_addr constant [17 x i8] c"instruction-time\00", align 1

; Function Attrs: mustprogress uwtable
define hidden void @_ZNK7datalog11instruction18collect_statisticsER10statistics(ptr noundef nonnull align 8 dereferenceable(72) %0, ptr noundef nonnull align 8 dereferenceable(16) %1) #4 align 2 {
  %3 = alloca ptr, align 8
  %4 = alloca ptr, align 8
  %5 = alloca %"struct.datalog::costs", align 4
  store ptr %0, ptr %3, align 8, !tbaa !291
  store ptr %1, ptr %4, align 8, !tbaa !267
  %6 = load ptr, ptr %3, align 8
  call void @llvm.lifetime.start.p0(i64 8, ptr %5) #3
  call void @_ZN7datalog5costsC1Ev(ptr noundef nonnull align 4 dereferenceable(8) %5)
  %7 = getelementptr inbounds i8, ptr %6, i64 8
  call void @_ZNK7datalog16accounted_object14get_total_costERNS_5costsE(ptr noundef nonnull align 8 dereferenceable(33) %7, ptr noundef nonnull align 4 dereferenceable(8) %5)
  %8 = load ptr, ptr %4, align 8, !tbaa !267
  %9 = getelementptr inbounds nuw %"struct.datalog::costs", ptr %5, i32 0, i32 1
  %10 = load i32, ptr %9, align 4, !tbaa !293
  call void @_ZN10statistics6updateEPKcj(ptr noundef nonnull align 8 dereferenceable(16) %8, ptr noundef @.str.17, i32 noundef %10)
  %11 = load ptr, ptr %4, align 8, !tbaa !267
  %12 = getelementptr inbounds nuw %"struct.datalog::costs", ptr %5, i32 0, i32 0
  %13 = load i32, ptr %12, align 4, !tbaa !295
  call void @_ZN10statistics6updateEPKcj(ptr noundef nonnull align 8 dereferenceable(16) %11, ptr noundef @.str.18, i32 noundef %13)
  call void @llvm.lifetime.end.p0(i64 8, ptr %5) #3
  ret void
}