; Function Attrs: mustprogress uwtable
define hidden void @_ZNK7datalog11instruction18collect_statisticsER10statistics(ptr noundef nonnull align 8 dereferenceable(72) %0, ptr noundef nonnull align 8 dereferenceable(16) %1) local_unnamed_addr #3 align 2 {
  %3 = alloca %"struct.datalog::costs", align 4
  call void @llvm.lifetime.start.p0(i64 8, ptr nonnull %3) #25
  call void @_ZN7datalog5costsC1Ev(ptr noundef nonnull align 4 dereferenceable(8) %3)
  %4 = getelementptr inbounds nuw i8, ptr %0, i64 8
  call void @_ZNK7datalog16accounted_object14get_total_costERNS_5costsE(ptr noundef nonnull align 8 dereferenceable(33) %4, ptr noundef nonnull align 4 dereferenceable(8) %3)
  %5 = getelementptr inbounds nuw i8, ptr %3, i64 4
  %6 = load i32, ptr %5, align 4, !tbaa !277
  call void @_ZN10statistics6updateEPKcj(ptr noundef nonnull align 8 dereferenceable(16) %1, ptr noundef nonnull @.str.17, i32 noundef %6)
  %7 = load i32, ptr %3, align 4, !tbaa !279
  call void @_ZN10statistics6updateEPKcj(ptr noundef nonnull align 8 dereferenceable(16) %1, ptr noundef nonnull @.str.18, i32 noundef %7)
  call void @llvm.lifetime.end.p0(i64 8, ptr nonnull %3) #25
  ret void
}